target datalayout = "e-m:e-p270:32:32-p271:32:32-p272:64:64-i64:64-i128:128-f80:128-n8:16:32:64-S128"
target triple = "x86_64-pc-linux-gnu"

; Function Attrs: nounwind uwtable
define internal void @LD4_C(ptr noundef %0) #0 {
  %2 = alloca ptr, align 8
  %3 = alloca i32, align 4
  %4 = alloca i32, align 4
  %5 = alloca i32, align 4
  %6 = alloca i32, align 4
  %7 = alloca i32, align 4
  %8 = alloca i32, align 4
  %9 = alloca i32, align 4
  %10 = alloca i32, align 4
  store ptr %0, ptr %2, align 8, !tbaa !16
  call void @llvm.lifetime.start.p0(i64 4, ptr %3) #7
  %11 = load ptr, ptr %2, align 8, !tbaa !16
  %12 = getelementptr inbounds i8, ptr %11, i64 -32
  %13 = load i8, ptr %12, align 1, !tbaa !18
  %14 = zext i8 %13 to i32
  store i32 %14, ptr %3, align 4, !tbaa !9
  call void @llvm.lifetime.start.p0(i64 4, ptr %4) #7
  %15 = load ptr, ptr %2, align 8, !tbaa !16
  %16 = getelementptr inbounds i8, ptr %15, i64 -31
  %17 = load i8, ptr %16, align 1, !tbaa !18
  %18 = zext i8 %17 to i32
  store i32 %18, ptr %4, align 4, !tbaa !9
  call void @llvm.lifetime.start.p0(i64 4, ptr %5) #7
  %19 = load ptr, ptr %2, align 8, !tbaa !16
  %20 = getelementptr inbounds i8, ptr %19, i64 -30
  %21 = load i8, ptr %20, align 1, !tbaa !18
  %22 = zext i8 %21 to i32
  store i32 %22, ptr %5, align 4, !tbaa !9
  call void @llvm.lifetime.start.p0(i64 4, ptr %6) #7
  %23 = load ptr, ptr %2, align 8, !tbaa !16
  %24 = getelementptr inbounds i8, ptr %23, i64 -29
  %25 = load i8, ptr %24, align 1, !tbaa !18
  %26 = zext i8 %25 to i32
  store i32 %26, ptr %6, align 4, !tbaa !9
  call void @llvm.lifetime.start.p0(i64 4, ptr %7) #7
  %27 = load ptr, ptr %2, align 8, !tbaa !16
  %28 = getelementptr inbounds i8, ptr %27, i64 -28
  %29 = load i8, ptr %28, align 1, !tbaa !18
  %30 = zext i8 %29 to i32
  store i32 %30, ptr %7, align 4, !tbaa !9
  call void @llvm.lifetime.start.p0(i64 4, ptr %8) #7
  %31 = load ptr, ptr %2, align 8, !tbaa !16
  %32 = getelementptr inbounds i8, ptr %31, i64 -27
  %33 = load i8, ptr %32, align 1, !tbaa !18
  %34 = zext i8 %33 to i32
  store i32 %34, ptr %8, align 4, !tbaa !9
  call void @llvm.lifetime.start.p0(i64 4, ptr %9) #7
  %35 = load ptr, ptr %2, align 8, !tbaa !16
  %36 = getelementptr inbounds i8, ptr %35, i64 -26
  %37 = load i8, ptr %36, align 1, !tbaa !18
  %38 = zext i8 %37 to i32
  store i32 %38, ptr %9, align 4, !tbaa !9
  call void @llvm.lifetime.start.p0(i64 4, ptr %10) #7
  %39 = load ptr, ptr %2, align 8, !tbaa !16
  %40 = getelementptr inbounds i8, ptr %39, i64 -25
  %41 = load i8, ptr %40, align 1, !tbaa !18
  %42 = zext i8 %41 to i32
  store i32 %42, ptr %10, align 4, !tbaa !9
  %43 = load i32, ptr %3, align 4, !tbaa !9
  %44 = load i32, ptr %4, align 4, !tbaa !9
  %45 = mul nsw i32 2, %44
  %46 = add nsw i32 %43, %45
  %47 = load i32, ptr %5, align 4, !tbaa !9
  %48 = add nsw i32 %46, %47
  %49 = add nsw i32 %48, 2
  %50 = ashr i32 %49, 2
  %51 = trunc i32 %50 to i8
  %52 = load ptr, ptr %2, align 8, !tbaa !16
  %53 = getelementptr inbounds i8, ptr %52, i64 0
  store i8 %51, ptr %53, align 1, !tbaa !18
  %54 = load i32, ptr %4, align 4, !tbaa !9
  %55 = load i32, ptr %5, align 4, !tbaa !9
  %56 = mul nsw i32 2, %55
  %57 = add nsw i32 %54, %56
  %58 = load i32, ptr %6, align 4, !tbaa !9
  %59 = add nsw i32 %57, %58
  %60 = add nsw i32 %59, 2
  %61 = ashr i32 %60, 2
  %62 = trunc i32 %61 to i8
  %63 = load ptr, ptr %2, align 8, !tbaa !16
  %64 = getelementptr inbounds i8, ptr %63, i64 32
  store i8 %62, ptr %64, align 1, !tbaa !18
  %65 = load ptr, ptr %2, align 8, !tbaa !16
  %66 = getelementptr inbounds i8, ptr %65, i64 1
  store i8 %62, ptr %66, align 1, !tbaa !18
  %67 = load i32, ptr %5, align 4, !tbaa !9
  %68 = load i32, ptr %6, align 4, !tbaa !9
  %69 = mul nsw i32 2, %68
  %70 = add nsw i32 %67, %69
  %71 = load i32, ptr %7, align 4, !tbaa !9
  %72 = add nsw i32 %70, %71
  %73 = add nsw i32 %72, 2
  %74 = ashr i32 %73, 2
  %75 = trunc i32 %74 to i8
  %76 = load ptr, ptr %2, align 8, !tbaa !16
  %77 = getelementptr inbounds i8, ptr %76, i64 64
  store i8 %75, ptr %77, align 1, !tbaa !18
  %78 = load ptr, ptr %2, align 8, !tbaa !16
  %79 = getelementptr inbounds i8, ptr %78, i64 33
  store i8 %75, ptr %79, align 1, !tbaa !18
  %80 = load ptr, ptr %2, align 8, !tbaa !16
  %81 = getelementptr inbounds i8, ptr %80, i64 2
  store i8 %75, ptr %81, align 1, !tbaa !18
  %82 = load i32, ptr %6, align 4, !tbaa !9
  %83 = load i32, ptr %7, align 4, !tbaa !9
  %84 = mul nsw i32 2, %83
  %85 = add nsw i32 %82, %84
  %86 = load i32, ptr %8, align 4, !tbaa !9
  %87 = add nsw i32 %85, %86
  %88 = add nsw i32 %87, 2
  %89 = ashr i32 %88, 2
  %90 = trunc i32 %89 to i8
  %91 = load ptr, ptr %2, align 8, !tbaa !16
  %92 = getelementptr inbounds i8, ptr %91, i64 96
  store i8 %90, ptr %92, align 1, !tbaa !18
  %93 = load ptr, ptr %2, align 8, !tbaa !16
  %94 = getelementptr inbounds i8, ptr %93, i64 65
  store i8 %90, ptr %94, align 1, !tbaa !18
  %95 = load ptr, ptr %2, align 8, !tbaa !16
  %96 = getelementptr inbounds i8, ptr %95, i64 34
  store i8 %90, ptr %96, align 1, !tbaa !18
  %97 = load ptr, ptr %2, align 8, !tbaa !16
  %98 = getelementptr inbounds i8, ptr %97, i64 3
  store i8 %90, ptr %98, align 1, !tbaa !18
  %99 = load i32, ptr %7, align 4, !tbaa !9
  %100 = load i32, ptr %8, align 4, !tbaa !9
  %101 = mul nsw i32 2, %100
  %102 = add nsw i32 %99, %101
  %103 = load i32, ptr %9, align 4, !tbaa !9
  %104 = add nsw i32 %102, %103
  %105 = add nsw i32 %104, 2
  %106 = ashr i32 %105, 2
  %107 = trunc i32 %106 to i8
  %108 = load ptr, ptr %2, align 8, !tbaa !16
  %109 = getelementptr inbounds i8, ptr %108, i64 97
  store i8 %107, ptr %109, align 1, !tbaa !18
  %110 = load ptr, ptr %2, align 8, !tbaa !16
  %111 = getelementptr inbounds i8, ptr %110, i64 66
  store i8 %107, ptr %111, align 1, !tbaa !18
  %112 = load ptr, ptr %2, align 8, !tbaa !16
  %113 = getelementptr inbounds i8, ptr %112, i64 35
  store i8 %107, ptr %113, align 1, !tbaa !18
  %114 = load i32, ptr %8, align 4, !tbaa !9
  %115 = load i32, ptr %9, align 4, !tbaa !9
  %116 = mul nsw i32 2, %115
  %117 = add nsw i32 %114, %116
  %118 = load i32, ptr %10, align 4, !tbaa !9
  %119 = add nsw i32 %117, %118
  %120 = add nsw i32 %119, 2
  %121 = ashr i32 %120, 2
  %122 = trunc i32 %121 to i8
  %123 = load ptr, ptr %2, align 8, !tbaa !16
  %124 = getelementptr inbounds i8, ptr %123, i64 98
  store i8 %122, ptr %124, align 1, !tbaa !18
  %125 = load ptr, ptr %2, align 8, !tbaa !16
  %126 = getelementptr inbounds i8, ptr %125, i64 67
  store i8 %122, ptr %126, align 1, !tbaa !18
  %127 = load i32, ptr %9, align 4, !tbaa !9
  %128 = load i32, ptr %10, align 4, !tbaa !9
  %129 = mul nsw i32 2, %128
  %130 = add nsw i32 %127, %129
  %131 = load i32, ptr %10, align 4, !tbaa !9
  %132 = add nsw i32 %130, %131
  %133 = add nsw i32 %132, 2
  %134 = ashr i32 %133, 2
  %135 = trunc i32 %134 to i8
  %136 = load ptr, ptr %2, align 8, !tbaa !16
  %137 = getelementptr inbounds i8, ptr %136, i64 99
  store i8 %135, ptr %137, align 1, !tbaa !18
  call void @llvm.lifetime.end.p0(i64 4, ptr %10) #7
  call void @llvm.lifetime.end.p0(i64 4, ptr %9) #7
  call void @llvm.lifetime.end.p0(i64 4, ptr %8) #7
  call void @llvm.lifetime.end.p0(i64 4, ptr %7) #7
  call void @llvm.lifetime.end.p0(i64 4, ptr %6) #7
  call void @llvm.lifetime.end.p0(i64 4, ptr %5) #7
  call void @llvm.lifetime.end.p0(i64 4, ptr %4) #7
  call void @llvm.lifetime.end.p0(i64 4, ptr %3) #7
  ret void
}