; Function Attrs: mustprogress nofree norecurse nosync nounwind willreturn memory(argmem: readwrite) uwtable
define internal void @LD4_C(ptr noundef captures(none) initializes((0, 4), (32, 36), (64, 68), (96, 100)) %0) #4 {
  %2 = getelementptr inbounds i8, ptr %0, i64 -32
  %3 = load i8, ptr %2, align 1, !tbaa !14
  %4 = zext i8 %3 to i32
  %5 = getelementptr inbounds i8, ptr %0, i64 -31
  %6 = load i8, ptr %5, align 1, !tbaa !14
  %7 = zext i8 %6 to i32
  %8 = getelementptr inbounds i8, ptr %0, i64 -30
  %9 = load i8, ptr %8, align 1, !tbaa !14
  %10 = zext i8 %9 to i32
  %11 = getelementptr inbounds i8, ptr %0, i64 -29
  %12 = load i8, ptr %11, align 1, !tbaa !14
  %13 = zext i8 %12 to i32
  %14 = getelementptr inbounds i8, ptr %0, i64 -28
  %15 = load i8, ptr %14, align 1, !tbaa !14
  %16 = zext i8 %15 to i32
  %17 = getelementptr inbounds i8, ptr %0, i64 -27
  %18 = load i8, ptr %17, align 1, !tbaa !14
  %19 = zext i8 %18 to i32
  %20 = getelementptr inbounds i8, ptr %0, i64 -26
  %21 = load i8, ptr %20, align 1, !tbaa !14
  %22 = zext i8 %21 to i32
  %23 = getelementptr inbounds i8, ptr %0, i64 -25
  %24 = load i8, ptr %23, align 1, !tbaa !14
  %25 = zext i8 %24 to i32
  %26 = shl nuw nsw i32 %7, 1
  %27 = add nuw nsw i32 %10, 2
  %28 = add nuw nsw i32 %27, %4
  %29 = add nuw nsw i32 %28, %26
  %30 = lshr i32 %29, 2
  %31 = trunc nuw i32 %30 to i8
  store i8 %31, ptr %0, align 1, !tbaa !14
  %32 = shl nuw nsw i32 %10, 1
  %33 = add nuw nsw i32 %13, 2
  %34 = add nuw nsw i32 %33, %7
  %35 = add nuw nsw i32 %34, %32
  %36 = lshr i32 %35, 2
  %37 = trunc nuw i32 %36 to i8
  %38 = getelementptr inbounds nuw i8, ptr %0, i64 32
  store i8 %37, ptr %38, align 1, !tbaa !14
  %39 = getelementptr inbounds nuw i8, ptr %0, i64 1
  store i8 %37, ptr %39, align 1, !tbaa !14
  %40 = shl nuw nsw i32 %13, 1
  %41 = add nuw nsw i32 %27, %40
  %42 = add nuw nsw i32 %41, %16
  %43 = lshr i32 %42, 2
  %44 = trunc nuw i32 %43 to i8
  %45 = getelementptr inbounds nuw i8, ptr %0, i64 64
  store i8 %44, ptr %45, align 1, !tbaa !14
  %46 = getelementptr inbounds nuw i8, ptr %0, i64 33
  store i8 %44, ptr %46, align 1, !tbaa !14
  %47 = getelementptr inbounds nuw i8, ptr %0, i64 2
  store i8 %44, ptr %47, align 1, !tbaa !14
  %48 = shl nuw nsw i32 %16, 1
  %49 = add nuw nsw i32 %33, %48
  %50 = add nuw nsw i32 %49, %19
  %51 = lshr i32 %50, 2
  %52 = trunc nuw i32 %51 to i8
  %53 = getelementptr inbounds nuw i8, ptr %0, i64 96
  store i8 %52, ptr %53, align 1, !tbaa !14
  %54 = getelementptr inbounds nuw i8, ptr %0, i64 65
  store i8 %52, ptr %54, align 1, !tbaa !14
  %55 = getelementptr inbounds nuw i8, ptr %0, i64 34
  store i8 %52, ptr %55, align 1, !tbaa !14
  %56 = getelementptr inbounds nuw i8, ptr %0, i64 3
  store i8 %52, ptr %56, align 1, !tbaa !14
  %57 = shl nuw nsw i32 %19, 1
  %58 = add nuw nsw i32 %16, 2
  %59 = add nuw nsw i32 %58, %57
  %60 = add nuw nsw i32 %59, %22
  %61 = lshr i32 %60, 2
  %62 = trunc nuw i32 %61 to i8
  %63 = getelementptr inbounds nuw i8, ptr %0, i64 97
  store i8 %62, ptr %63, align 1, !tbaa !14
  %64 = getelementptr inbounds nuw i8, ptr %0, i64 66
  store i8 %62, ptr %64, align 1, !tbaa !14
  %65 = getelementptr inbounds nuw i8, ptr %0, i64 35
  store i8 %62, ptr %65, align 1, !tbaa !14
  %66 = shl nuw nsw i32 %22, 1
  %67 = add nuw nsw i32 %19, 2
  %68 = add nuw nsw i32 %67, %66
  %69 = add nuw nsw i32 %68, %25
  %70 = lshr i32 %69, 2
  %71 = trunc nuw i32 %70 to i8
  %72 = getelementptr inbounds nuw i8, ptr %0, i64 98
  store i8 %71, ptr %72, align 1, !tbaa !14
  %73 = getelementptr inbounds nuw i8, ptr %0, i64 67
  store i8 %71, ptr %73, align 1, !tbaa !14
  %74 = shl nuw nsw i32 %25, 1
  %75 = add nuw nsw i32 %22, 2
  %76 = add nuw nsw i32 %75, %25
  %77 = add nuw nsw i32 %76, %74
  %78 = lshr i32 %77, 2
  %79 = trunc nuw i32 %78 to i8
  %80 = getelementptr inbounds nuw i8, ptr %0, i64 99
  store i8 %79, ptr %80, align 1, !tbaa !14
  ret void
}